target datalayout = "e-m:e-p270:32:32-p271:32:32-p272:64:64-i64:64-i128:128-f80:128-n8:16:32:64-S128"
target triple = "x86_64-unknown-linux-gnu"

%struct.QEnumLookup = type { ptr, ptr, i32 }
%struct.q_obj_GUEST_PANICKED_arg = type { i32, ptr }

@.str.7 = private unnamed_addr constant [7 x i8] c"action\00", align 1
@.str.12 = private unnamed_addr constant [5 x i8] c"info\00", align 1
@GuestPanicAction_lookup = external constant %struct.QEnumLookup, align 8

; Function Attrs: nounwind sspstrong uwtable
define dso_local zeroext i1 @visit_type_GuestPanicAction(ptr noundef %v, ptr noundef %name, ptr noundef %obj, ptr noundef %errp) #0 {
entry:
  %v.addr = alloca ptr, align 8
  %name.addr = alloca ptr, align 8
  %obj.addr = alloca ptr, align 8
  %errp.addr = alloca ptr, align 8
  %value = alloca i32, align 4
  %ok = alloca i8, align 1
  store ptr %v, ptr %v.addr, align 8
  store ptr %name, ptr %name.addr, align 8
  store ptr %obj, ptr %obj.addr, align 8
  store ptr %errp, ptr %errp.addr, align 8
  %0 = load ptr, ptr %obj.addr, align 8
  %1 = load i32, ptr %0, align 4
  store i32 %1, ptr %value, align 4
  %2 = load ptr, ptr %v.addr, align 8
  %3 = load ptr, ptr %name.addr, align 8
  %4 = load ptr, ptr %errp.addr, align 8
  %call = call zeroext i1 @visit_type_enum(ptr noundef %2, ptr noundef %3, ptr noundef %value, ptr noundef @GuestPanicAction_lookup, ptr noundef %4)
  %frombool = zext i1 %call to i8
  store i8 %frombool, ptr %ok, align 1
  %5 = load i32, ptr %value, align 4
  %6 = load ptr, ptr %obj.addr, align 8
  store i32 %5, ptr %6, align 4
  %7 = load i8, ptr %ok, align 1
  %tobool = trunc i8 %7 to i1
  ret i1 %tobool
}

; Function Attrs: nounwind sspstrong uwtable
define dso_local zeroext i1 @visit_type_q_obj_GUEST_PANICKED_arg_members(ptr noundef %v, ptr noundef %obj, ptr noundef %errp) #0 {
entry:
  %retval = alloca i1, align 1
  %v.addr = alloca ptr, align 8
  %obj.addr = alloca ptr, align 8
  %errp.addr = alloca ptr, align 8
  %has_info = alloca i8, align 1
  store ptr %v, ptr %v.addr, align 8
  store ptr %obj, ptr %obj.addr, align 8
  store ptr %errp, ptr %errp.addr, align 8
  %0 = load ptr, ptr %obj.addr, align 8
  %info = getelementptr inbounds %struct.q_obj_GUEST_PANICKED_arg, ptr %0, i32 0, i32 1
  %1 = load ptr, ptr %info, align 8
  %tobool = icmp ne ptr %1, null
  %lnot = xor i1 %tobool, true
  %lnot1 = xor i1 %lnot, true
  %frombool = zext i1 %lnot1 to i8
  store i8 %frombool, ptr %has_info, align 1
  %2 = load ptr, ptr %v.addr, align 8
  %3 = load ptr, ptr %obj.addr, align 8
  %action = getelementptr inbounds %struct.q_obj_GUEST_PANICKED_arg, ptr %3, i32 0, i32 0
  %4 = load ptr, ptr %errp.addr, align 8
  %call = call zeroext i1 @visit_type_GuestPanicAction(ptr noundef %2, ptr noundef @.str.7, ptr noundef %action, ptr noundef %4)
  br i1 %call, label %if.end, label %if.then

if.then:                                          ; preds = %entry
  store i1 false, ptr %retval, align 1
  br label %return

if.end:                                           ; preds = %entry
  %5 = load ptr, ptr %v.addr, align 8
  %call2 = call zeroext i1 @visit_optional(ptr noundef %5, ptr noundef @.str.12, ptr noundef %has_info)
  br i1 %call2, label %if.then3, label %if.end8

if.then3:                                         ; preds = %if.end
  %6 = load ptr, ptr %v.addr, align 8
  %7 = load ptr, ptr %obj.addr, align 8
  %info4 = getelementptr inbounds %struct.q_obj_GUEST_PANICKED_arg, ptr %7, i32 0, i32 1
  %8 = load ptr, ptr %errp.addr, align 8
  %call5 = call zeroext i1 @visit_type_GuestPanicInformation(ptr noundef %6, ptr noundef @.str.12, ptr noundef %info4, ptr noundef %8)
  br i1 %call5, label %if.end7, label %if.then6

if.then6:                                         ; preds = %if.then3
  store i1 false, ptr %retval, align 1
  br label %return

if.end7:                                          ; preds = %if.then3
  br label %if.end8

if.end8:                                          ; preds = %if.end7, %if.end
  store i1 true, ptr %retval, align 1
  br label %return

return:                                           ; preds = %if.end8, %if.then6, %if.then
  %9 = load i1, ptr %retval, align 1
  ret i1 %9
}