; Function Attrs: nounwind sspstrong uwtable
define dso_local noundef zeroext i1 @visit_type_q_obj_GUEST_PANICKED_arg_members(ptr noundef %v, ptr noundef %obj, ptr noundef %errp) local_unnamed_addr #0 {
entry:
  %value.i = alloca i32, align 4
  %has_info = alloca i8, align 1
  %info = getelementptr inbounds nuw i8, ptr %obj, i64 8
  %0 = load ptr, ptr %info, align 8
  %tobool = icmp ne ptr %0, null
  %frombool = zext i1 %tobool to i8
  store i8 %frombool, ptr %has_info, align 1
  call void @llvm.lifetime.start.p0(i64 4, ptr nonnull %value.i)
  %1 = load i32, ptr %obj, align 4
  store i32 %1, ptr %value.i, align 4
  %call.i = call zeroext i1 @visit_type_enum(ptr noundef %v, ptr noundef nonnull @.str.7, ptr noundef nonnull %value.i, ptr noundef nonnull @GuestPanicAction_lookup, ptr noundef %errp) #5
  %2 = load i32, ptr %value.i, align 4
  store i32 %2, ptr %obj, align 4
  call void @llvm.lifetime.end.p0(i64 4, ptr nonnull %value.i)
  br i1 %call.i, label %if.end, label %return

if.end:                                           ; preds = %entry
  %call2 = call zeroext i1 @visit_optional(ptr noundef %v, ptr noundef nonnull @.str.12, ptr noundef nonnull %has_info) #5
  br i1 %call2, label %if.then3, label %if.end8

if.then3:                                         ; preds = %if.end
  %call5 = call zeroext i1 @visit_type_GuestPanicInformation(ptr noundef %v, ptr noundef nonnull @.str.12, ptr noundef nonnull %info, ptr noundef %errp)
  br i1 %call5, label %if.end8, label %return

if.end8:                                          ; preds = %if.then3, %if.end
  br label %return

return:                                           ; preds = %if.then3, %entry, %if.end8
  %retval.0 = phi i1 [ true, %if.end8 ], [ false, %entry ], [ false, %if.then3 ]
  ret i1 %retval.0
}